target datalayout = "e-m:e-p270:32:32-p271:32:32-p272:64:64-i64:64-i128:128-f80:128-n8:16:32:64-S128"
target triple = "x86_64-pc-linux-gnu"

%class.CompositeCounterRepresentation = type { %class.Representation }
%class.Representation = type { %class.PairRep }
%class.PairRep = type { i64, i64 }
%class.TimePartitions = type { ptr, %class.PhasesStack, %class.TimeInterval, %class.TimeInterval }
%class.PhasesStack = type { [6 x i32], i32 }
%class.TimeInterval = type { %class.CompositeCounterRepresentation }
%class.GrowableArrayBase = type { i32, i32 }
%class.TimePartitionPhasesIterator = type <{ ptr, ptr, i32, [4 x i8] }>

; Function Attrs: mustprogress nounwind uwtable
define linkonce_odr hidden noundef i32 @_ZNK17GrowableArrayBase6lengthEv(ptr noundef nonnull align 4 dereferenceable(8) %0) #1 comdat align 2 {
  %2 = alloca ptr, align 8
  store ptr %0, ptr %2, align 8
  %3 = load ptr, ptr %2, align 8
  %4 = getelementptr inbounds %class.GrowableArrayBase, ptr %3, i32 0, i32 0
  %5 = load i32, ptr %4, align 4
  ret i32 %5
}

; Function Attrs: mustprogress nounwind uwtable
define hidden noundef i32 @_ZNK14TimePartitions10num_phasesEv(ptr noundef nonnull align 8 dereferenceable(72) %0) #1 align 2 {
  %2 = alloca ptr, align 8
  store ptr %0, ptr %2, align 8
  %3 = load ptr, ptr %2, align 8
  %4 = getelementptr inbounds %class.TimePartitions, ptr %3, i32 0, i32 0
  %5 = load ptr, ptr %4, align 8
  %6 = call noundef i32 @_ZNK17GrowableArrayBase6lengthEv(ptr noundef nonnull align 4 dereferenceable(8) %5)
  ret i32 %6
}

; Function Attrs: mustprogress nounwind uwtable
define hidden noundef zeroext i1 @_ZN27TimePartitionPhasesIterator8has_nextEv(ptr noundef nonnull align 8 dereferenceable(20) %0) unnamed_addr #1 align 2 {
  %2 = alloca ptr, align 8
  store ptr %0, ptr %2, align 8
  %3 = load ptr, ptr %2, align 8
  %4 = getelementptr inbounds %class.TimePartitionPhasesIterator, ptr %3, i32 0, i32 2
  %5 = load i32, ptr %4, align 8
  %6 = getelementptr inbounds %class.TimePartitionPhasesIterator, ptr %3, i32 0, i32 1
  %7 = load ptr, ptr %6, align 8
  %8 = call noundef i32 @_ZNK14TimePartitions10num_phasesEv(ptr noundef nonnull align 8 dereferenceable(72) %7)
  %9 = icmp slt i32 %5, %8
  ret i1 %9
}